; Function Attrs: nounwind uwtable
define void @Acec_MultFindPPsTest(ptr noundef %0) local_unnamed_addr #0 {
  %2 = tail call ptr @Acec_MultFindPPs(ptr noundef %0)
  tail call void @Gia_ManShow(ptr noundef %0, ptr noundef %2, i32 noundef 1, i32 noundef 0, i32 noundef 0) #11
  %3 = getelementptr inbounds nuw i8, ptr %2, i64 8
  %4 = load ptr, ptr %3, align 8, !tbaa !30
  %.not.i = icmp eq ptr %4, null
  br i1 %.not.i, label %Vec_IntFree.exit, label %5

5:                                                ; preds = %1
  tail call void @free(ptr noundef nonnull %4) #11
  br label %Vec_IntFree.exit

Vec_IntFree.exit:                                 ; preds = %1, %5
  tail call void @free(ptr noundef nonnull %2) #11
  ret void
}